
ACX_Grad.elf:     file format elf32-avr

Sections:
Idx Name          Size      VMA       LMA       File off  Algn
  0 .data         00000020  00800200  00000560  000005f4  2**0
                  CONTENTS, ALLOC, LOAD, DATA
  1 .text         00000560  00000000  00000000  00000094  2**1
                  CONTENTS, ALLOC, LOAD, READONLY, CODE
  2 .bss          00000815  00800220  00800220  00000614  2**0
                  ALLOC
  3 .comment      00000030  00000000  00000000  00000614  2**0
                  CONTENTS, READONLY
  4 .note.gnu.avr.deviceinfo 00000040  00000000  00000000  00000644  2**2
                  CONTENTS, READONLY
  5 .debug_aranges 000000d0  00000000  00000000  00000688  2**3
                  CONTENTS, READONLY, DEBUGGING
  6 .debug_info   000015c4  00000000  00000000  00000758  2**0
                  CONTENTS, READONLY, DEBUGGING
  7 .debug_abbrev 00000f09  00000000  00000000  00001d1c  2**0
                  CONTENTS, READONLY, DEBUGGING
  8 .debug_line   00000a30  00000000  00000000  00002c25  2**0
                  CONTENTS, READONLY, DEBUGGING
  9 .debug_frame  000001b8  00000000  00000000  00003658  2**2
                  CONTENTS, READONLY, DEBUGGING
 10 .debug_str    00000701  00000000  00000000  00003810  2**0
                  CONTENTS, READONLY, DEBUGGING
 11 .debug_loc    00000679  00000000  00000000  00003f11  2**0
                  CONTENTS, READONLY, DEBUGGING
 12 .debug_ranges 00000090  00000000  00000000  0000458a  2**0
                  CONTENTS, READONLY, DEBUGGING

Disassembly of section .text:

00000000 <__vectors>:
   0:	71 c0       	rjmp	.+226    	; 0xe4 <__ctors_end>
   2:	00 00       	nop
   4:	8e c0       	rjmp	.+284    	; 0x122 <__bad_interrupt>
   6:	00 00       	nop
   8:	8c c0       	rjmp	.+280    	; 0x122 <__bad_interrupt>
   a:	00 00       	nop
   c:	8a c0       	rjmp	.+276    	; 0x122 <__bad_interrupt>
   e:	00 00       	nop
  10:	88 c0       	rjmp	.+272    	; 0x122 <__bad_interrupt>
  12:	00 00       	nop
  14:	86 c0       	rjmp	.+268    	; 0x122 <__bad_interrupt>
  16:	00 00       	nop
  18:	84 c0       	rjmp	.+264    	; 0x122 <__bad_interrupt>
  1a:	00 00       	nop
  1c:	82 c0       	rjmp	.+260    	; 0x122 <__bad_interrupt>
  1e:	00 00       	nop
  20:	80 c0       	rjmp	.+256    	; 0x122 <__bad_interrupt>
  22:	00 00       	nop
  24:	7e c0       	rjmp	.+252    	; 0x122 <__bad_interrupt>
  26:	00 00       	nop
  28:	7c c0       	rjmp	.+248    	; 0x122 <__bad_interrupt>
  2a:	00 00       	nop
  2c:	7a c0       	rjmp	.+244    	; 0x122 <__bad_interrupt>
  2e:	00 00       	nop
  30:	78 c0       	rjmp	.+240    	; 0x122 <__bad_interrupt>
  32:	00 00       	nop
  34:	76 c0       	rjmp	.+236    	; 0x122 <__bad_interrupt>
  36:	00 00       	nop
  38:	74 c0       	rjmp	.+232    	; 0x122 <__bad_interrupt>
  3a:	00 00       	nop
  3c:	72 c0       	rjmp	.+228    	; 0x122 <__bad_interrupt>
  3e:	00 00       	nop
  40:	70 c0       	rjmp	.+224    	; 0x122 <__bad_interrupt>
  42:	00 00       	nop
  44:	16 c2       	rjmp	.+1068   	; 0x472 <__vector_17>
  46:	00 00       	nop
  48:	6c c0       	rjmp	.+216    	; 0x122 <__bad_interrupt>
  4a:	00 00       	nop
  4c:	6a c0       	rjmp	.+212    	; 0x122 <__bad_interrupt>
  4e:	00 00       	nop
  50:	68 c0       	rjmp	.+208    	; 0x122 <__bad_interrupt>
  52:	00 00       	nop
  54:	66 c0       	rjmp	.+204    	; 0x122 <__bad_interrupt>
  56:	00 00       	nop
  58:	64 c0       	rjmp	.+200    	; 0x122 <__bad_interrupt>
  5a:	00 00       	nop
  5c:	62 c0       	rjmp	.+196    	; 0x122 <__bad_interrupt>
  5e:	00 00       	nop
  60:	60 c0       	rjmp	.+192    	; 0x122 <__bad_interrupt>
  62:	00 00       	nop
  64:	5e c0       	rjmp	.+188    	; 0x122 <__bad_interrupt>
  66:	00 00       	nop
  68:	5c c0       	rjmp	.+184    	; 0x122 <__bad_interrupt>
  6a:	00 00       	nop
  6c:	5a c0       	rjmp	.+180    	; 0x122 <__bad_interrupt>
  6e:	00 00       	nop
  70:	58 c0       	rjmp	.+176    	; 0x122 <__bad_interrupt>
  72:	00 00       	nop
  74:	56 c0       	rjmp	.+172    	; 0x122 <__bad_interrupt>
  76:	00 00       	nop
  78:	54 c0       	rjmp	.+168    	; 0x122 <__bad_interrupt>
  7a:	00 00       	nop
  7c:	52 c0       	rjmp	.+164    	; 0x122 <__bad_interrupt>
  7e:	00 00       	nop
  80:	50 c0       	rjmp	.+160    	; 0x122 <__bad_interrupt>
  82:	00 00       	nop
  84:	4e c0       	rjmp	.+156    	; 0x122 <__bad_interrupt>
  86:	00 00       	nop
  88:	4c c0       	rjmp	.+152    	; 0x122 <__bad_interrupt>
  8a:	00 00       	nop
  8c:	4a c0       	rjmp	.+148    	; 0x122 <__bad_interrupt>
  8e:	00 00       	nop
  90:	48 c0       	rjmp	.+144    	; 0x122 <__bad_interrupt>
  92:	00 00       	nop
  94:	46 c0       	rjmp	.+140    	; 0x122 <__bad_interrupt>
  96:	00 00       	nop
  98:	44 c0       	rjmp	.+136    	; 0x122 <__bad_interrupt>
  9a:	00 00       	nop
  9c:	42 c0       	rjmp	.+132    	; 0x122 <__bad_interrupt>
  9e:	00 00       	nop
  a0:	40 c0       	rjmp	.+128    	; 0x122 <__bad_interrupt>
  a2:	00 00       	nop
  a4:	3e c0       	rjmp	.+124    	; 0x122 <__bad_interrupt>
  a6:	00 00       	nop
  a8:	3c c0       	rjmp	.+120    	; 0x122 <__bad_interrupt>
  aa:	00 00       	nop
  ac:	3a c0       	rjmp	.+116    	; 0x122 <__bad_interrupt>
  ae:	00 00       	nop
  b0:	38 c0       	rjmp	.+112    	; 0x122 <__bad_interrupt>
  b2:	00 00       	nop
  b4:	36 c0       	rjmp	.+108    	; 0x122 <__bad_interrupt>
  b6:	00 00       	nop
  b8:	34 c0       	rjmp	.+104    	; 0x122 <__bad_interrupt>
  ba:	00 00       	nop
  bc:	32 c0       	rjmp	.+100    	; 0x122 <__bad_interrupt>
  be:	00 00       	nop
  c0:	30 c0       	rjmp	.+96     	; 0x122 <__bad_interrupt>
  c2:	00 00       	nop
  c4:	2e c0       	rjmp	.+92     	; 0x122 <__bad_interrupt>
  c6:	00 00       	nop
  c8:	2c c0       	rjmp	.+88     	; 0x122 <__bad_interrupt>
  ca:	00 00       	nop
  cc:	2a c0       	rjmp	.+84     	; 0x122 <__bad_interrupt>
  ce:	00 00       	nop
  d0:	28 c0       	rjmp	.+80     	; 0x122 <__bad_interrupt>
  d2:	00 00       	nop
  d4:	26 c0       	rjmp	.+76     	; 0x122 <__bad_interrupt>
  d6:	00 00       	nop
  d8:	24 c0       	rjmp	.+72     	; 0x122 <__bad_interrupt>
  da:	00 00       	nop
  dc:	22 c0       	rjmp	.+68     	; 0x122 <__bad_interrupt>
  de:	00 00       	nop
  e0:	20 c0       	rjmp	.+64     	; 0x122 <__bad_interrupt>
	...

000000e4 <__ctors_end>:
  e4:	11 24       	eor	r1, r1
  e6:	1f be       	out	0x3f, r1	; 63
  e8:	cf ef       	ldi	r28, 0xFF	; 255
  ea:	d1 e2       	ldi	r29, 0x21	; 33
  ec:	de bf       	out	0x3e, r29	; 62
  ee:	cd bf       	out	0x3d, r28	; 61
  f0:	00 e0       	ldi	r16, 0x00	; 0
  f2:	0c bf       	out	0x3c, r16	; 60

000000f4 <__do_copy_data>:
  f4:	12 e0       	ldi	r17, 0x02	; 2
  f6:	a0 e0       	ldi	r26, 0x00	; 0
  f8:	b2 e0       	ldi	r27, 0x02	; 2
  fa:	e0 e6       	ldi	r30, 0x60	; 96
  fc:	f5 e0       	ldi	r31, 0x05	; 5
  fe:	00 e0       	ldi	r16, 0x00	; 0
 100:	0b bf       	out	0x3b, r16	; 59
 102:	02 c0       	rjmp	.+4      	; 0x108 <__do_copy_data+0x14>
 104:	07 90       	elpm	r0, Z+
 106:	0d 92       	st	X+, r0
 108:	a0 32       	cpi	r26, 0x20	; 32
 10a:	b1 07       	cpc	r27, r17
 10c:	d9 f7       	brne	.-10     	; 0x104 <__do_copy_data+0x10>

0000010e <__do_clear_bss>:
 10e:	2a e0       	ldi	r18, 0x0A	; 10
 110:	a0 e2       	ldi	r26, 0x20	; 32
 112:	b2 e0       	ldi	r27, 0x02	; 2
 114:	01 c0       	rjmp	.+2      	; 0x118 <.do_clear_bss_start>

00000116 <.do_clear_bss_loop>:
 116:	1d 92       	st	X+, r1

00000118 <.do_clear_bss_start>:
 118:	a5 33       	cpi	r26, 0x35	; 53
 11a:	b2 07       	cpc	r27, r18
 11c:	e1 f7       	brne	.-8      	; 0x116 <.do_clear_bss_loop>
 11e:	08 d2       	rcall	.+1040   	; 0x530 <main>
 120:	1d c2       	rjmp	.+1082   	; 0x55c <_exit>

00000122 <__bad_interrupt>:
 122:	6e cf       	rjmp	.-292    	; 0x0 <__vectors>

00000124 <x_yield>:
;------------------------------------------------------------------------
; Save thread context
;-------------------------------------------------------------------------

    ; Save registers for calling thread
	push r1 //Just in case
 124:	1f 92       	push	r1
	push r2 // Save and restore callee-save registers
 126:	2f 92       	push	r2
	push r3 // Push onto calling thread's stack
 128:	3f 92       	push	r3
	push r4
 12a:	4f 92       	push	r4
	push r5
 12c:	5f 92       	push	r5
	push r6
 12e:	6f 92       	push	r6
	push r7
 130:	7f 92       	push	r7
	push r8
 132:	8f 92       	push	r8
	push r9
 134:	9f 92       	push	r9
	push r10
 136:	af 92       	push	r10
	push r11
 138:	bf 92       	push	r11
	push r12
 13a:	cf 92       	push	r12
	push r13
 13c:	df 92       	push	r13
	push r14
 13e:	ef 92       	push	r14
	push r15
 140:	ff 92       	push	r15
	push r16
 142:	0f 93       	push	r16
	push r17
 144:	1f 93       	push	r17
	push r28
 146:	cf 93       	push	r28
	push r29
 148:	df 93       	push	r29

	; save stack pointer in appropriate array location
    ;---------------------------
;	in r24, 

 	lds r30, x_thread_id        ; get stack ID
 14a:	e0 91 20 02 	lds	r30, 0x0220	; 0x800220 <__data_end>
 	ldi r31, 0
 14e:	f0 e0       	ldi	r31, 0x00	; 0

 	lsl r30                     ; get stack control table offset
 150:	ee 0f       	add	r30, r30
 	rol r31
 152:	ff 1f       	adc	r31, r31
 	lsl r30
 154:	ee 0f       	add	r30, r30
 	rol r31
 156:	ff 1f       	adc	r31, r31
 	sbci r30, lo8(-(stackControlTable)) ; get stack pointer address from table
 158:	e0 40       	sbci	r30, 0x00	; 0
 	sbci r31, hi8(-(stackControlTable))
 15a:	fe 4f       	sbci	r31, 0xFE	; 254

	in	r24, __SP_L__			; Put SP in r24-25
 15c:	8d b7       	in	r24, 0x3d	; 61
	in	r25, __SP_H__
 15e:	9e b7       	in	r25, 0x3e	; 62

	st	Z+,	r24					; *Z = SP 
 160:	81 93       	st	Z+, r24
	st	Z , r25
 162:	90 83       	st	Z, r25

	; Check for stack overflows
    ;---------------------------
 	
 	; int * Z = mem
	ldi r30, lo8(mem)           ; Init Z pointer to &mem
 164:	e3 e2       	ldi	r30, 0x23	; 35
 	ldi r31, hi8(mem)
 166:	f2 e0       	ldi	r31, 0x02	; 2

 	; threadID * stacksize for canary
	; int offset = x_thread_id * 256
	ldi r24, 0
 168:	80 e0       	ldi	r24, 0x00	; 0
	lds r25,	x_thread_id
 16a:	90 91 20 02 	lds	r25, 0x0220	; 0x800220 <__data_end>

	add r31,	r25;
 16e:	f9 0f       	add	r31, r25
	ld	r24,	Z
 170:	80 81       	ld	r24, Z

	cpi	r24,	0xAA
 172:	8a 3a       	cpi	r24, 0xAA	; 170
	breq noSOF
 174:	09 f0       	breq	.+2      	; 0x178 <x_schedule>

00000176 <SOF>:
SOF:
	; Execute if there is a stack overflow
	call x_stack_overflow
 176:	f6 d0       	rcall	.+492    	; 0x364 <x_stack_overflow>

00000178 <x_schedule>:
		.global	x_schedule
x_schedule:

	; Determine next thread to run
    ;---------------------------
	lds r18, x_thread_id
 178:	20 91 20 02 	lds	r18, 0x0220	; 0x800220 <__data_end>
	
	lds r19, disable
 17c:	30 91 22 02 	lds	r19, 0x0222	; 0x800222 <disable>
	lds r20, suspend
 180:	40 91 21 02 	lds	r20, 0x0221	; 0x800221 <suspend>
	lds r21, delay
 184:	50 91 23 0a 	lds	r21, 0x0A23	; 0x800a23 <delay>

	or r21, r20
 188:	54 2b       	or	r21, r20
	or r21, r19
 18a:	53 2b       	or	r21, r19

0000018c <scan_begin>:

scan_begin:
	subi r18, -1			; get next thhread
 18c:	2f 5f       	subi	r18, 0xFF	; 255
	andi r18, 0x07			; mod by numthreads
 18e:	27 70       	andi	r18, 0x07	; 7

	mov r24, r18
	call bit2mask8			; get mask of bit (thread_id + 1) % numthreads
 190:	82 2f       	mov	r24, r18
 192:	25 d0       	rcall	.+74     	; 0x1de <bit2mask8>

	and r21, r24
 194:	58 23       	and	r21, r24
	cp r21, r24
 196:	58 17       	cp	r21, r24

	breq scan_begin
 198:	c9 f3       	breq	.-14     	; 0x18c <scan_begin>


	; Retrieve next stack pointer for next thread
    ;---------------------------
	;sts x_thread_id, r18
	mov r30, r18        ; get stack ID
 19a:	e2 2f       	mov	r30, r18
 	ldi r31, 0
 19c:	f0 e0       	ldi	r31, 0x00	; 0

 	lsl r30             ; get stack control table offset
 19e:	ee 0f       	add	r30, r30
 	rol r31
 1a0:	ff 1f       	adc	r31, r31
 	lsl r30
 1a2:	ee 0f       	add	r30, r30
 	rol r31
 1a4:	ff 1f       	adc	r31, r31
 	sbci r30, lo8(-(stackControlTable)) ; get stack pointer address from table
 1a6:	e0 40       	sbci	r30, 0x00	; 0
 	sbci r31, hi8(-(stackControlTable))
 1a8:	fe 4f       	sbci	r31, 0xFE	; 254

	ld	r24, Z+					
 1aa:	81 91       	ld	r24, Z+
	ld	r25, Z
 1ac:	90 81       	ld	r25, Z

    ; restore new thread's stack pointer
    ;---------------------------
    cli             ; begin stack pointer change		
 1ae:	f8 94       	cli
	out __SP_L__, r24
 1b0:	8d bf       	out	0x3d, r24	; 61
	out __SP_H__, r25
 1b2:	9e bf       	out	0x3e, r25	; 62
    sei             ; end  stack pointer change
 1b4:	78 94       	sei

000001b6 <restore>:
;---------------------------------------------------
restore:
 	
    ; restore new thread's registers 
    ;---------------------------
	pop r29
 1b6:	df 91       	pop	r29
	pop r28
 1b8:	cf 91       	pop	r28
	pop r17
 1ba:	1f 91       	pop	r17
	pop r16
 1bc:	0f 91       	pop	r16
	pop r15
 1be:	ff 90       	pop	r15
	pop r14
 1c0:	ef 90       	pop	r14
	pop r13
 1c2:	df 90       	pop	r13
	pop r12
 1c4:	cf 90       	pop	r12
	pop r11
 1c6:	bf 90       	pop	r11
	pop r10
 1c8:	af 90       	pop	r10
	pop r9
 1ca:	9f 90       	pop	r9
	pop r8
 1cc:	8f 90       	pop	r8
	pop r7
 1ce:	7f 90       	pop	r7
	pop r6
 1d0:	6f 90       	pop	r6
	pop r5
 1d2:	5f 90       	pop	r5
	pop r4
 1d4:	4f 90       	pop	r4
	pop r3
 1d6:	3f 90       	pop	r3
	pop r2
 1d8:	2f 90       	pop	r2
	pop r1
 1da:	1f 90       	pop	r1

	ret
 1dc:	08 95       	ret

000001de <bit2mask8>:
//-----------------------------------------------------------------------------------------------

		.global bit2mask8
bit2mask8:
		;r24 contains thread ID input
 		subi r24, -1
 1de:	8f 5f       	subi	r24, 0xFF	; 255
		ldi r25, 1
 1e0:	91 e0       	ldi	r25, 0x01	; 1

000001e2 <again>:
again:

		dec r24
 1e2:	8a 95       	dec	r24
		cpi r24, 1
 1e4:	81 30       	cpi	r24, 0x01	; 1
		brlo done
		lsl r25
 1e6:	10 f0       	brcs	.+4      	; 0x1ec <done>
		jmp again
 1e8:	99 0f       	add	r25, r25
 1ea:	fb cf       	rjmp	.-10     	; 0x1e2 <again>

000001ec <done>:

done:	mov r24, r25
 1ec:	89 2f       	mov	r24, r25
		ldi r25, 0
 1ee:	90 e0       	ldi	r25, 0x00	; 0
		ret
 1f0:	08 95       	ret

000001f2 <kernalInit>:
void x_enable(uint8_t ID) {
	cli();

	// Your initialization code here
	disable &= ~bit2mask8(ID);
	sei();
 1f2:	8e ef       	ldi	r24, 0xFE	; 254
 1f4:	80 93 22 02 	sts	0x0222, r24	; 0x800222 <disable>
 1f8:	10 92 21 02 	sts	0x0221, r1	; 0x800221 <suspend>
 1fc:	10 92 23 0a 	sts	0x0A23, r1	; 0x800a23 <delay>
 200:	80 e0       	ldi	r24, 0x00	; 0
 202:	90 e0       	ldi	r25, 0x00	; 0
 204:	fc 01       	movw	r30, r24
 206:	ee 0f       	add	r30, r30
 208:	ff 1f       	adc	r31, r31
 20a:	ec 5d       	subi	r30, 0xDC	; 220
 20c:	f5 4f       	sbci	r31, 0xF5	; 245
 20e:	11 82       	std	Z+1, r1	; 0x01
 210:	10 82       	st	Z, r1
 212:	01 96       	adiw	r24, 0x01	; 1
 214:	88 30       	cpi	r24, 0x08	; 8
 216:	91 05       	cpc	r25, r1
 218:	a9 f7       	brne	.-22     	; 0x204 <kernalInit+0x12>
 21a:	10 92 20 02 	sts	0x0220, r1	; 0x800220 <__data_end>
 21e:	81 e0       	ldi	r24, 0x01	; 1
 220:	80 93 34 0a 	sts	0x0A34, r24	; 0x800a34 <x_thread_mask>
 224:	08 95       	ret

00000226 <placeCanaries>:
 226:	8a ea       	ldi	r24, 0xAA	; 170
 228:	80 93 23 02 	sts	0x0223, r24	; 0x800223 <mem>
 22c:	80 93 23 03 	sts	0x0323, r24	; 0x800323 <mem+0x100>
 230:	80 93 23 04 	sts	0x0423, r24	; 0x800423 <mem+0x200>
 234:	80 93 23 05 	sts	0x0523, r24	; 0x800523 <mem+0x300>
 238:	80 93 23 06 	sts	0x0623, r24	; 0x800623 <mem+0x400>
 23c:	80 93 23 07 	sts	0x0723, r24	; 0x800723 <mem+0x500>
 240:	80 93 23 08 	sts	0x0823, r24	; 0x800823 <mem+0x600>
 244:	80 93 23 09 	sts	0x0923, r24	; 0x800923 <mem+0x700>
 248:	08 95       	ret

0000024a <x_init>:
 24a:	0f 93       	push	r16
 24c:	1f 93       	push	r17
 24e:	cf 93       	push	r28
 250:	df 93       	push	r29
 252:	00 d0       	rcall	.+0      	; 0x254 <x_init+0xa>
 254:	cd b7       	in	r28, 0x3d	; 61
 256:	de b7       	in	r29, 0x3e	; 62
 258:	0d b7       	in	r16, 0x3d	; 61
 25a:	1e b7       	in	r17, 0x3e	; 62
 25c:	f8 94       	cli
 25e:	c9 df       	rcall	.-110    	; 0x1f2 <kernalInit>
 260:	e2 df       	rcall	.-60     	; 0x226 <placeCanaries>
 262:	f8 01       	movw	r30, r16
 264:	82 85       	ldd	r24, Z+10	; 0x0a
 266:	89 83       	std	Y+1, r24	; 0x01
 268:	81 85       	ldd	r24, Z+9	; 0x09
 26a:	8a 83       	std	Y+2, r24	; 0x02
 26c:	80 85       	ldd	r24, Z+8	; 0x08
 26e:	8b 83       	std	Y+3, r24	; 0x03
 270:	82 e2       	ldi	r24, 0x22	; 34
 272:	93 e0       	ldi	r25, 0x03	; 3
 274:	9e bf       	out	0x3e, r25	; 62
 276:	8d bf       	out	0x3d, r24	; 61
 278:	ed b7       	in	r30, 0x3d	; 61
 27a:	fe b7       	in	r31, 0x3e	; 62
 27c:	89 81       	ldd	r24, Y+1	; 0x01
 27e:	80 83       	st	Z, r24
 280:	8a 81       	ldd	r24, Y+2	; 0x02
 282:	df 01       	movw	r26, r30
 284:	11 97       	sbiw	r26, 0x01	; 1
 286:	8c 93       	st	X, r24
 288:	8b 81       	ldd	r24, Y+3	; 0x03
 28a:	32 97       	sbiw	r30, 0x02	; 2
 28c:	80 83       	st	Z, r24
 28e:	8d b7       	in	r24, 0x3d	; 61
 290:	9e b7       	in	r25, 0x3e	; 62
 292:	0a 97       	sbiw	r24, 0x0a	; 10
 294:	9e bf       	out	0x3e, r25	; 62
 296:	8d bf       	out	0x3d, r24	; 61
 298:	78 94       	sei
 29a:	0f 90       	pop	r0
 29c:	0f 90       	pop	r0
 29e:	0f 90       	pop	r0
 2a0:	df 91       	pop	r29
 2a2:	cf 91       	pop	r28
 2a4:	1f 91       	pop	r17
 2a6:	0f 91       	pop	r16
 2a8:	08 95       	ret

000002aa <x_delay>:
 2aa:	9c 01       	movw	r18, r24
 2ac:	f8 94       	cli
 2ae:	80 91 20 02 	lds	r24, 0x0220	; 0x800220 <__data_end>
 2b2:	e8 2f       	mov	r30, r24
 2b4:	f0 e0       	ldi	r31, 0x00	; 0
 2b6:	ee 0f       	add	r30, r30
 2b8:	ff 1f       	adc	r31, r31
 2ba:	ec 5d       	subi	r30, 0xDC	; 220
 2bc:	f5 4f       	sbci	r31, 0xF5	; 245
 2be:	31 83       	std	Z+1, r19	; 0x01
 2c0:	20 83       	st	Z, r18
 2c2:	8d df       	rcall	.-230    	; 0x1de <bit2mask8>
 2c4:	90 91 23 0a 	lds	r25, 0x0A23	; 0x800a23 <delay>
 2c8:	89 2b       	or	r24, r25
 2ca:	80 93 23 0a 	sts	0x0A23, r24	; 0x800a23 <delay>
 2ce:	2a df       	rcall	.-428    	; 0x124 <x_yield>
 2d0:	78 94       	sei
 2d2:	08 95       	ret

000002d4 <x_new>:
 2d4:	0f 93       	push	r16
 2d6:	1f 93       	push	r17
 2d8:	cf 93       	push	r28
 2da:	df 93       	push	r29
 2dc:	00 d0       	rcall	.+0      	; 0x2de <x_new+0xa>
 2de:	cd b7       	in	r28, 0x3d	; 61
 2e0:	de b7       	in	r29, 0x3e	; 62
 2e2:	f8 94       	cli
 2e4:	1b 82       	std	Y+3, r1	; 0x03
 2e6:	1a 82       	std	Y+2, r1	; 0x02
 2e8:	19 82       	std	Y+1, r1	; 0x01
 2ea:	7a 83       	std	Y+2, r23	; 0x02
 2ec:	69 83       	std	Y+1, r22	; 0x01
 2ee:	e8 2f       	mov	r30, r24
 2f0:	f0 e0       	ldi	r31, 0x00	; 0
 2f2:	ee 0f       	add	r30, r30
 2f4:	ff 1f       	adc	r31, r31
 2f6:	ee 0f       	add	r30, r30
 2f8:	ff 1f       	adc	r31, r31
 2fa:	8f 01       	movw	r16, r30
 2fc:	00 50       	subi	r16, 0x00	; 0
 2fe:	1e 4f       	sbci	r17, 0xFE	; 254
 300:	f8 01       	movw	r30, r16
 302:	22 81       	ldd	r18, Z+2	; 0x02
 304:	33 81       	ldd	r19, Z+3	; 0x03
 306:	99 81       	ldd	r25, Y+1	; 0x01
 308:	d9 01       	movw	r26, r18
 30a:	9c 93       	st	X, r25
 30c:	9a 81       	ldd	r25, Y+2	; 0x02
 30e:	b9 01       	movw	r22, r18
 310:	61 50       	subi	r22, 0x01	; 1
 312:	71 09       	sbc	r23, r1
 314:	fb 01       	movw	r30, r22
 316:	90 83       	st	Z, r25
 318:	9b 81       	ldd	r25, Y+3	; 0x03
 31a:	12 97       	sbiw	r26, 0x02	; 2
 31c:	9c 93       	st	X, r25
 31e:	26 51       	subi	r18, 0x16	; 22
 320:	31 09       	sbc	r19, r1
 322:	f8 01       	movw	r30, r16
 324:	31 83       	std	Z+1, r19	; 0x01
 326:	20 83       	st	Z, r18
 328:	24 2f       	mov	r18, r20
 32a:	30 e0       	ldi	r19, 0x00	; 0
 32c:	b9 01       	movw	r22, r18
 32e:	02 c0       	rjmp	.+4      	; 0x334 <x_new+0x60>
 330:	66 0f       	add	r22, r22
 332:	77 1f       	adc	r23, r23
 334:	8a 95       	dec	r24
 336:	e2 f7       	brpl	.-8      	; 0x330 <x_new+0x5c>
 338:	cb 01       	movw	r24, r22
 33a:	44 23       	and	r20, r20
 33c:	29 f0       	breq	.+10     	; 0x348 <x_new+0x74>
 33e:	80 95       	com	r24
 340:	90 91 22 02 	lds	r25, 0x0222	; 0x800222 <disable>
 344:	89 23       	and	r24, r25
 346:	03 c0       	rjmp	.+6      	; 0x34e <x_new+0x7a>
 348:	90 91 22 02 	lds	r25, 0x0222	; 0x800222 <disable>
 34c:	89 2b       	or	r24, r25
 34e:	80 93 22 02 	sts	0x0222, r24	; 0x800222 <disable>
 352:	78 94       	sei
 354:	0f 90       	pop	r0
 356:	0f 90       	pop	r0
 358:	0f 90       	pop	r0
 35a:	df 91       	pop	r29
 35c:	cf 91       	pop	r28
 35e:	1f 91       	pop	r17
 360:	0f 91       	pop	r16
 362:	08 95       	ret

00000364 <x_stack_overflow>:
	// return to caller.
}

// called from X_yield if the canary is malformed
void x_stack_overflow(void) {
	DDRB |= 0x80;
 364:	27 9a       	sbi	0x04, 7	; 4

	// return to caller.
}

// called from X_yield if the canary is malformed
void x_stack_overflow(void) {
 366:	23 e0       	ldi	r18, 0x03	; 3
 368:	30 e0       	ldi	r19, 0x00	; 0
	#else
		//round up by default
		__ticks_dc = (uint32_t)(ceil(fabs(__tmp)));
	#endif

	__builtin_avr_delay_cycles(__ticks_dc);
 36a:	4f ef       	ldi	r20, 0xFF	; 255
 36c:	81 ee       	ldi	r24, 0xE1	; 225
 36e:	94 e0       	ldi	r25, 0x04	; 4
 370:	41 50       	subi	r20, 0x01	; 1
 372:	80 40       	sbci	r24, 0x00	; 0
 374:	90 40       	sbci	r25, 0x00	; 0
 376:	e1 f7       	brne	.-8      	; 0x370 <x_stack_overflow+0xc>
 378:	00 c0       	rjmp	.+0      	; 0x37a <x_stack_overflow+0x16>
 37a:	00 00       	nop
	DDRB |= 0x80;
	while (1) {
		for (int i = 0; i < 3; i++) {
			_delay_ms(100);
			PORTB |= 0x80;
 37c:	2f 9a       	sbi	0x05, 7	; 5
 37e:	4f ef       	ldi	r20, 0xFF	; 255
 380:	81 ee       	ldi	r24, 0xE1	; 225
 382:	94 e0       	ldi	r25, 0x04	; 4
 384:	41 50       	subi	r20, 0x01	; 1
 386:	80 40       	sbci	r24, 0x00	; 0
 388:	90 40       	sbci	r25, 0x00	; 0
 38a:	e1 f7       	brne	.-8      	; 0x384 <x_stack_overflow+0x20>
 38c:	00 c0       	rjmp	.+0      	; 0x38e <x_stack_overflow+0x2a>
 38e:	00 00       	nop
			_delay_ms(100);
			PORTB ^= 0x80;
 390:	85 b1       	in	r24, 0x05	; 5
 392:	80 58       	subi	r24, 0x80	; 128
 394:	85 b9       	out	0x05, r24	; 5
 396:	21 50       	subi	r18, 0x01	; 1
 398:	31 09       	sbc	r19, r1

// called from X_yield if the canary is malformed
void x_stack_overflow(void) {
	DDRB |= 0x80;
	while (1) {
		for (int i = 0; i < 3; i++) {
 39a:	39 f7       	brne	.-50     	; 0x36a <x_stack_overflow+0x6>
 39c:	23 e0       	ldi	r18, 0x03	; 3
 39e:	30 e0       	ldi	r19, 0x00	; 0
 3a0:	4f ef       	ldi	r20, 0xFF	; 255
 3a2:	85 ea       	ldi	r24, 0xA5	; 165
 3a4:	9e e0       	ldi	r25, 0x0E	; 14
 3a6:	41 50       	subi	r20, 0x01	; 1
 3a8:	80 40       	sbci	r24, 0x00	; 0
 3aa:	90 40       	sbci	r25, 0x00	; 0
 3ac:	e1 f7       	brne	.-8      	; 0x3a6 <x_stack_overflow+0x42>
 3ae:	00 c0       	rjmp	.+0      	; 0x3b0 <x_stack_overflow+0x4c>
 3b0:	00 00       	nop
			_delay_ms(100);
			PORTB ^= 0x80;
		}
		for (int i = 0; i < 3; i++) {
			_delay_ms(300);
			PORTB |= 0x80;
 3b2:	2f 9a       	sbi	0x05, 7	; 5
 3b4:	4f ef       	ldi	r20, 0xFF	; 255
 3b6:	85 ea       	ldi	r24, 0xA5	; 165
 3b8:	9e e0       	ldi	r25, 0x0E	; 14
 3ba:	41 50       	subi	r20, 0x01	; 1
 3bc:	80 40       	sbci	r24, 0x00	; 0
 3be:	90 40       	sbci	r25, 0x00	; 0
 3c0:	e1 f7       	brne	.-8      	; 0x3ba <x_stack_overflow+0x56>
 3c2:	00 c0       	rjmp	.+0      	; 0x3c4 <x_stack_overflow+0x60>
 3c4:	00 00       	nop
			_delay_ms(300);
			PORTB ^= 0x80;
 3c6:	85 b1       	in	r24, 0x05	; 5
 3c8:	80 58       	subi	r24, 0x80	; 128
 3ca:	85 b9       	out	0x05, r24	; 5
 3cc:	21 50       	subi	r18, 0x01	; 1
 3ce:	31 09       	sbc	r19, r1
			_delay_ms(100);
			PORTB |= 0x80;
			_delay_ms(100);
			PORTB ^= 0x80;
		}
		for (int i = 0; i < 3; i++) {
 3d0:	39 f7       	brne	.-50     	; 0x3a0 <x_stack_overflow+0x3c>
 3d2:	23 e0       	ldi	r18, 0x03	; 3
 3d4:	30 e0       	ldi	r19, 0x00	; 0
 3d6:	4f ef       	ldi	r20, 0xFF	; 255
 3d8:	81 ee       	ldi	r24, 0xE1	; 225
 3da:	94 e0       	ldi	r25, 0x04	; 4
 3dc:	41 50       	subi	r20, 0x01	; 1
 3de:	80 40       	sbci	r24, 0x00	; 0
 3e0:	90 40       	sbci	r25, 0x00	; 0
 3e2:	e1 f7       	brne	.-8      	; 0x3dc <x_stack_overflow+0x78>
 3e4:	00 c0       	rjmp	.+0      	; 0x3e6 <x_stack_overflow+0x82>
 3e6:	00 00       	nop
			_delay_ms(300);
			PORTB ^= 0x80;
		}
		for (int i = 0; i < 3; i++) {
			_delay_ms(100);
			PORTB |= 0x80;
 3e8:	2f 9a       	sbi	0x05, 7	; 5
 3ea:	4f ef       	ldi	r20, 0xFF	; 255
 3ec:	81 ee       	ldi	r24, 0xE1	; 225
 3ee:	94 e0       	ldi	r25, 0x04	; 4
 3f0:	41 50       	subi	r20, 0x01	; 1
 3f2:	80 40       	sbci	r24, 0x00	; 0
 3f4:	90 40       	sbci	r25, 0x00	; 0
 3f6:	e1 f7       	brne	.-8      	; 0x3f0 <x_stack_overflow+0x8c>
 3f8:	00 c0       	rjmp	.+0      	; 0x3fa <x_stack_overflow+0x96>
 3fa:	00 00       	nop
			_delay_ms(100);
			PORTB ^= 0x80;
 3fc:	85 b1       	in	r24, 0x05	; 5
 3fe:	80 58       	subi	r24, 0x80	; 128
 400:	85 b9       	out	0x05, r24	; 5
 402:	21 50       	subi	r18, 0x01	; 1
 404:	31 09       	sbc	r19, r1
			_delay_ms(300);
			PORTB |= 0x80;
			_delay_ms(300);
			PORTB ^= 0x80;
		}
		for (int i = 0; i < 3; i++) {
 406:	39 f7       	brne	.-50     	; 0x3d6 <x_stack_overflow+0x72>
 408:	2f ef       	ldi	r18, 0xFF	; 255
 40a:	45 ea       	ldi	r20, 0xA5	; 165
 40c:	8e e0       	ldi	r24, 0x0E	; 14
 40e:	21 50       	subi	r18, 0x01	; 1
 410:	40 40       	sbci	r20, 0x00	; 0
 412:	80 40       	sbci	r24, 0x00	; 0
 414:	e1 f7       	brne	.-8      	; 0x40e <__LOCK_REGION_LENGTH__+0xe>
 416:	00 c0       	rjmp	.+0      	; 0x418 <__LOCK_REGION_LENGTH__+0x18>
 418:	00 00       	nop
 41a:	a5 cf       	rjmp	.-182    	; 0x366 <x_stack_overflow+0x2>

0000041c <setTimer>:
		_delay_ms(300);
	}
}

void setTimer() {
	PRR0 = 0x00;
 41c:	10 92 64 00 	sts	0x0064, r1	; 0x800064 <__TEXT_REGION_LENGTH__+0x700064>
	TCNT1 = 0;
 420:	10 92 85 00 	sts	0x0085, r1	; 0x800085 <__TEXT_REGION_LENGTH__+0x700085>
 424:	10 92 84 00 	sts	0x0084, r1	; 0x800084 <__TEXT_REGION_LENGTH__+0x700084>

	// period 333.33 ms @ 16144, on-time = 75 ms @ 4688
	int TOP1 = 63; // OFFTIME - 1 ms
	int TOP2 = 63;//63;// ONTIME - 1 ms

	cli();
 428:	f8 94       	cli
	TCCR1A = 0x00;
 42a:	10 92 80 00 	sts	0x0080, r1	; 0x800080 <__TEXT_REGION_LENGTH__+0x700080>
	TCCR1B = 0x00;
 42e:	e1 e8       	ldi	r30, 0x81	; 129
 430:	f0 e0       	ldi	r31, 0x00	; 0
 432:	10 82       	st	Z, r1
	//TCCR0A = 0x02; //Sets CTC mode of operation?

	// configure match register
	ICR1 = TOP1;
 434:	8f e3       	ldi	r24, 0x3F	; 63
 436:	90 e0       	ldi	r25, 0x00	; 0
 438:	90 93 87 00 	sts	0x0087, r25	; 0x800087 <__TEXT_REGION_LENGTH__+0x700087>
 43c:	80 93 86 00 	sts	0x0086, r24	; 0x800086 <__TEXT_REGION_LENGTH__+0x700086>
	OCR1A = TOP2;    // 75 msec
 440:	90 93 89 00 	sts	0x0089, r25	; 0x800089 <__TEXT_REGION_LENGTH__+0x700089>
 444:	80 93 88 00 	sts	0x0088, r24	; 0x800088 <__TEXT_REGION_LENGTH__+0x700088>
	TCCR1B = 0x04;   // clk/256 from prescaler
 448:	84 e0       	ldi	r24, 0x04	; 4
 44a:	80 83       	st	Z, r24

	// turn on CTC mode:
	TCCR1B |= (1 << WGM12);
 44c:	80 81       	ld	r24, Z
 44e:	88 60       	ori	r24, 0x08	; 8
 450:	80 83       	st	Z, r24

	// Set CS10 and CS12 bits for 1024 prescaler:
	TCCR1B |= (1 << CS10);
 452:	80 81       	ld	r24, Z
 454:	81 60       	ori	r24, 0x01	; 1
 456:	80 83       	st	Z, r24
	TCCR1B |= (1 << CS12);
 458:	80 81       	ld	r24, Z
 45a:	84 60       	ori	r24, 0x04	; 4
 45c:	80 83       	st	Z, r24

	// enable timer compare interrupt:
	TIMSK1 |= (1 << OCIE1A);
 45e:	ef e6       	ldi	r30, 0x6F	; 111
 460:	f0 e0       	ldi	r31, 0x00	; 0
 462:	80 81       	ld	r24, Z
 464:	82 60       	ori	r24, 0x02	; 2
 466:	80 83       	st	Z, r24
	sei();          // enable global interrupts
 468:	78 94       	sei

	// setup initial output state
	DDRB = 0x80;
 46a:	80 e8       	ldi	r24, 0x80	; 128
 46c:	84 b9       	out	0x04, r24	; 4
	PORTB |= 0x80;
 46e:	2f 9a       	sbi	0x05, 7	; 5
 470:	08 95       	ret

00000472 <__vector_17>:
}

ISR(TIMER1_COMPA_vect){
 472:	1f 92       	push	r1
 474:	0f 92       	push	r0
 476:	0f b6       	in	r0, 0x3f	; 63
 478:	0f 92       	push	r0
 47a:	11 24       	eor	r1, r1
 47c:	0b b6       	in	r0, 0x3b	; 59
 47e:	0f 92       	push	r0
 480:	1f 93       	push	r17
 482:	2f 93       	push	r18
 484:	3f 93       	push	r19
 486:	4f 93       	push	r20
 488:	5f 93       	push	r21
 48a:	6f 93       	push	r22
 48c:	7f 93       	push	r23
 48e:	8f 93       	push	r24
 490:	9f 93       	push	r25
 492:	af 93       	push	r26
 494:	bf 93       	push	r27
 496:	cf 93       	push	r28
 498:	df 93       	push	r29
 49a:	ef 93       	push	r30
 49c:	ff 93       	push	r31
	//decrement x_thread_id's timer	
	//ATOMIC_BLOCK; // Need to unblock somehow afterwards?
	
	//check x_delay_thread for every thread
	for(int i = 0; i < MAXTHREADS; i++) {
 49e:	c0 e0       	ldi	r28, 0x00	; 0
 4a0:	d0 e0       	ldi	r29, 0x00	; 0
		// check if thread is currently delayed
		int delayStatus = bit2mask8(i) & delay; 
 4a2:	8c 2f       	mov	r24, r28
 4a4:	9c de       	rcall	.-712    	; 0x1de <bit2mask8>
		
		//if the delay status is not zero and the count isn't zero
		if (x_thread_delay[i] && delayStatus) { 
 4a6:	fe 01       	movw	r30, r28
 4a8:	ee 0f       	add	r30, r30
 4aa:	ff 1f       	adc	r31, r31
 4ac:	ec 5d       	subi	r30, 0xDC	; 220
 4ae:	f5 4f       	sbci	r31, 0xF5	; 245
 4b0:	20 81       	ld	r18, Z
 4b2:	31 81       	ldd	r19, Z+1	; 0x01
 4b4:	23 2b       	or	r18, r19
 4b6:	d1 f0       	breq	.+52     	; 0x4ec <__vector_17+0x7a>
 4b8:	90 91 23 0a 	lds	r25, 0x0A23	; 0x800a23 <delay>
 4bc:	89 23       	and	r24, r25
 4be:	b1 f0       	breq	.+44     	; 0x4ec <__vector_17+0x7a>
			
			// decrement count
			x_thread_delay[i]--;
 4c0:	fe 01       	movw	r30, r28
 4c2:	ee 0f       	add	r30, r30
 4c4:	ff 1f       	adc	r31, r31
 4c6:	ec 5d       	subi	r30, 0xDC	; 220
 4c8:	f5 4f       	sbci	r31, 0xF5	; 245
 4ca:	80 81       	ld	r24, Z
 4cc:	91 81       	ldd	r25, Z+1	; 0x01
 4ce:	01 97       	sbiw	r24, 0x01	; 1
 4d0:	91 83       	std	Z+1, r25	; 0x01
 4d2:	80 83       	st	Z, r24
			
			//if counter is now zero then clear delay bit
			if (!x_thread_delay[i])
 4d4:	80 81       	ld	r24, Z
 4d6:	91 81       	ldd	r25, Z+1	; 0x01
 4d8:	89 2b       	or	r24, r25
 4da:	41 f4       	brne	.+16     	; 0x4ec <__vector_17+0x7a>
				delay &= ~(bit2mask8(i));
 4dc:	8c 2f       	mov	r24, r28
 4de:	7f de       	rcall	.-770    	; 0x1de <bit2mask8>
 4e0:	80 95       	com	r24
 4e2:	90 91 23 0a 	lds	r25, 0x0A23	; 0x800a23 <delay>
 4e6:	89 23       	and	r24, r25
 4e8:	80 93 23 0a 	sts	0x0A23, r24	; 0x800a23 <delay>
ISR(TIMER1_COMPA_vect){
	//decrement x_thread_id's timer	
	//ATOMIC_BLOCK; // Need to unblock somehow afterwards?
	
	//check x_delay_thread for every thread
	for(int i = 0; i < MAXTHREADS; i++) {
 4ec:	21 96       	adiw	r28, 0x01	; 1
 4ee:	c8 30       	cpi	r28, 0x08	; 8
 4f0:	d1 05       	cpc	r29, r1
 4f2:	b9 f6       	brne	.-82     	; 0x4a2 <__vector_17+0x30>
			//if counter is now zero then clear delay bit
			if (!x_thread_delay[i])
				delay &= ~(bit2mask8(i));
		}
	}
}
 4f4:	ff 91       	pop	r31
 4f6:	ef 91       	pop	r30
 4f8:	df 91       	pop	r29
 4fa:	cf 91       	pop	r28
 4fc:	bf 91       	pop	r27
 4fe:	af 91       	pop	r26
 500:	9f 91       	pop	r25
 502:	8f 91       	pop	r24
 504:	7f 91       	pop	r23
 506:	6f 91       	pop	r22
 508:	5f 91       	pop	r21
 50a:	4f 91       	pop	r20
 50c:	3f 91       	pop	r19
 50e:	2f 91       	pop	r18
 510:	1f 91       	pop	r17
 512:	0f 90       	pop	r0
 514:	0b be       	out	0x3b, r0	; 59
 516:	0f 90       	pop	r0
 518:	0f be       	out	0x3f, r0	; 63
 51a:	0f 90       	pop	r0
 51c:	1f 90       	pop	r1
 51e:	18 95       	reti

00000520 <thread0Blink>:
{
   while(1){
	 //PORTF &= 0x80;
	 //PORTF |= (shiftCounter++) % 3;
	 //PORTF ^= 1 << 0;
     x_delay(1);
 520:	81 e0       	ldi	r24, 0x01	; 1
 522:	90 e0       	ldi	r25, 0x00	; 0
 524:	c2 de       	rcall	.-636    	; 0x2aa <x_delay>
 526:	fc cf       	rjmp	.-8      	; 0x520 <thread0Blink>

00000528 <thread1Blink>:

void thread1Blink() {
	while(1) {
	  //PORTF &= 0x80;
	  //PORTF ^= 1 << 1;
	  x_delay(2);
 528:	82 e0       	ldi	r24, 0x02	; 2
 52a:	90 e0       	ldi	r25, 0x00	; 0
 52c:	be de       	rcall	.-644    	; 0x2aa <x_delay>
 52e:	fc cf       	rjmp	.-8      	; 0x528 <thread1Blink>

00000530 <main>:

int shiftCounter = 0;

int main(void)
{
   DDRB = 0x80;
 530:	80 e8       	ldi	r24, 0x80	; 128
 532:	84 b9       	out	0x04, r24	; 4
   PORTB |= 0x80;
 534:	2f 9a       	sbi	0x05, 7	; 5
   DDRF |= (1<<DDF1)|(1<<DDF0);
 536:	80 b3       	in	r24, 0x10	; 16
 538:	83 60       	ori	r24, 0x03	; 3
 53a:	80 bb       	out	0x10, r24	; 16
   x_init();
 53c:	86 de       	rcall	.-756    	; 0x24a <x_init>
   setTimer();
 53e:	6e df       	rcall	.-292    	; 0x41c <setTimer>
 540:	41 e0       	ldi	r20, 0x01	; 1
   x_new(0, thread0Blink, true); 
 542:	60 e9       	ldi	r22, 0x90	; 144
 544:	72 e0       	ldi	r23, 0x02	; 2
 546:	80 e0       	ldi	r24, 0x00	; 0
 548:	c5 de       	rcall	.-630    	; 0x2d4 <x_new>
 54a:	41 e0       	ldi	r20, 0x01	; 1
   x_new(1, thread1Blink, true);  
 54c:	64 e9       	ldi	r22, 0x94	; 148
 54e:	72 e0       	ldi	r23, 0x02	; 2
 550:	81 e0       	ldi	r24, 0x01	; 1
 552:	c0 de       	rcall	.-640    	; 0x2d4 <x_new>
 554:	81 b3       	in	r24, 0x11	; 17
   PORTF |= 0x03;
 556:	83 60       	ori	r24, 0x03	; 3
 558:	81 bb       	out	0x11, r24	; 17
 55a:	ff cf       	rjmp	.-2      	; 0x55a <main+0x2a>

0000055c <_exit>:
 55c:	f8 94       	cli

0000055e <__stop_program>:
 55e:	ff cf       	rjmp	.-2      	; 0x55e <__stop_program>
